target datalayout = "e-m:e-p270:32:32-p271:32:32-p272:64:64-i64:64-i128:128-f80:128-n8:16:32:64-S128"
target triple = "x86_64-pc-linux-gnu"

%struct.luaL_Stream = type { ptr, ptr }

@.str.16 = private unnamed_addr constant [6 x i8] c"FILE*\00", align 1
@.str.17 = private unnamed_addr constant [29 x i8] c"attempt to use a closed file\00", align 1
@f_seek.mode = internal constant [3 x i32] [i32 0, i32 1, i32 2], align 4
@f_seek.modenames = internal constant [4 x ptr] [ptr @.str.45, ptr @.str.46, ptr @.str.47, ptr null], align 16
@.str.46 = private unnamed_addr constant [4 x i8] c"cur\00", align 1
@.str.48 = private unnamed_addr constant [31 x i8] c"not an integer in proper range\00", align 1

; Function Attrs: nounwind uwtable
define internal ptr @tofile(ptr noundef %0) #0 {
  %2 = alloca ptr, align 8
  %3 = alloca ptr, align 8
  store ptr %0, ptr %2, align 8, !tbaa !4
  call void @llvm.lifetime.start.p0(i64 8, ptr %3) #8
  %4 = load ptr, ptr %2, align 8, !tbaa !4
  %5 = call ptr @luaL_checkudata(ptr noundef %4, i32 noundef 1, ptr noundef @.str.16)
  store ptr %5, ptr %3, align 8, !tbaa !13
  %6 = load ptr, ptr %3, align 8, !tbaa !13
  %7 = getelementptr inbounds nuw %struct.luaL_Stream, ptr %6, i32 0, i32 1
  %8 = load ptr, ptr %7, align 8, !tbaa !17
  %9 = icmp eq ptr %8, null
  %10 = zext i1 %9 to i32
  %11 = icmp ne i32 %10, 0
  %12 = zext i1 %11 to i32
  %13 = sext i32 %12 to i64
  %14 = call i64 @llvm.expect.i64(i64 %13, i64 0)
  %15 = icmp ne i64 %14, 0
  br i1 %15, label %16, label %19

16:                                               ; preds = %1
  %17 = load ptr, ptr %2, align 8, !tbaa !4
  %18 = call i32 (ptr, ptr, ...) @luaL_error(ptr noundef %17, ptr noundef @.str.17)
  br label %19

19:                                               ; preds = %16, %1
  %20 = load ptr, ptr %3, align 8, !tbaa !13
  %21 = getelementptr inbounds nuw %struct.luaL_Stream, ptr %20, i32 0, i32 0
  %22 = load ptr, ptr %21, align 8, !tbaa !15
  call void @llvm.lifetime.end.p0(i64 8, ptr %3) #8
  ret ptr %22
}

; Function Attrs: nounwind uwtable
define internal i32 @f_seek(ptr noundef %0) #0 {
  %2 = alloca i32, align 4
  %3 = alloca ptr, align 8
  %4 = alloca ptr, align 8
  %5 = alloca i32, align 4
  %6 = alloca i64, align 8
  %7 = alloca i64, align 8
  %8 = alloca i32, align 4
  store ptr %0, ptr %3, align 8, !tbaa !4
  call void @llvm.lifetime.start.p0(i64 8, ptr %4) #8
  %9 = load ptr, ptr %3, align 8, !tbaa !4
  %10 = call ptr @tofile(ptr noundef %9)
  store ptr %10, ptr %4, align 8, !tbaa !9
  call void @llvm.lifetime.start.p0(i64 4, ptr %5) #8
  %11 = load ptr, ptr %3, align 8, !tbaa !4
  %12 = call i32 @luaL_checkoption(ptr noundef %11, i32 noundef 2, ptr noundef @.str.46, ptr noundef @f_seek.modenames)
  store i32 %12, ptr %5, align 4, !tbaa !18
  call void @llvm.lifetime.start.p0(i64 8, ptr %6) #8
  %13 = load ptr, ptr %3, align 8, !tbaa !4
  %14 = call i64 @luaL_optinteger(ptr noundef %13, i32 noundef 3, i64 noundef 0)
  store i64 %14, ptr %6, align 8, !tbaa !44
  call void @llvm.lifetime.start.p0(i64 8, ptr %7) #8
  %15 = load i64, ptr %6, align 8, !tbaa !44
  store i64 %15, ptr %7, align 8, !tbaa !22
  %16 = load i64, ptr %7, align 8, !tbaa !22
  %17 = load i64, ptr %6, align 8, !tbaa !44
  %18 = icmp eq i64 %16, %17
  %19 = zext i1 %18 to i32
  %20 = icmp ne i32 %19, 0
  %21 = zext i1 %20 to i32
  %22 = sext i32 %21 to i64
  %23 = call i64 @llvm.expect.i64(i64 %22, i64 1)
  %24 = icmp ne i64 %23, 0
  br i1 %24, label %28, label %25

25:                                               ; preds = %1
  %26 = load ptr, ptr %3, align 8, !tbaa !4
  %27 = call i32 @luaL_argerror(ptr noundef %26, i32 noundef 3, ptr noundef @.str.48)
  br label %28

28:                                               ; preds = %25, %1
  %29 = call ptr @__errno_location() #9
  store i32 0, ptr %29, align 4, !tbaa !18
  %30 = load ptr, ptr %4, align 8, !tbaa !9
  %31 = load i64, ptr %7, align 8, !tbaa !22
  %32 = load i32, ptr %5, align 4, !tbaa !18
  %33 = sext i32 %32 to i64
  %34 = getelementptr inbounds [3 x i32], ptr @f_seek.mode, i64 0, i64 %33
  %35 = load i32, ptr %34, align 4, !tbaa !18
  %36 = call i32 @fseeko64(ptr noundef %30, i64 noundef %31, i32 noundef %35)
  store i32 %36, ptr %5, align 4, !tbaa !18
  %37 = load i32, ptr %5, align 4, !tbaa !18
  %38 = icmp ne i32 %37, 0
  %39 = zext i1 %38 to i32
  %40 = sext i32 %39 to i64
  %41 = call i64 @llvm.expect.i64(i64 %40, i64 0)
  %42 = icmp ne i64 %41, 0
  br i1 %42, label %43, label %46

43:                                               ; preds = %28
  %44 = load ptr, ptr %3, align 8, !tbaa !4
  %45 = call i32 @luaL_fileresult(ptr noundef %44, i32 noundef 0, ptr noundef null)
  store i32 %45, ptr %2, align 4
  store i32 1, ptr %8, align 4
  br label %50

46:                                               ; preds = %28
  %47 = load ptr, ptr %3, align 8, !tbaa !4
  %48 = load ptr, ptr %4, align 8, !tbaa !9
  %49 = call i64 @ftello64(ptr noundef %48)
  call void @lua_pushinteger(ptr noundef %47, i64 noundef %49)
  store i32 1, ptr %2, align 4
  store i32 1, ptr %8, align 4
  br label %50

50:                                               ; preds = %46, %43
  call void @llvm.lifetime.end.p0(i64 8, ptr %7) #8
  call void @llvm.lifetime.end.p0(i64 8, ptr %6) #8
  call void @llvm.lifetime.end.p0(i64 4, ptr %5) #8
  call void @llvm.lifetime.end.p0(i64 8, ptr %4) #8
  %51 = load i32, ptr %2, align 4
  ret i32 %51
}