; Function Attrs: nounwind uwtable
define internal i32 @f_seek(ptr noundef %0) #0 {
  %2 = tail call ptr @luaL_checkudata(ptr noundef %0, i32 noundef 1, ptr noundef nonnull @.str.16) #9
  %3 = getelementptr inbounds nuw i8, ptr %2, i64 8
  %4 = load ptr, ptr %3, align 8, !tbaa !9
  %5 = icmp eq ptr %4, null
  br i1 %5, label %6, label %tofile.exit, !prof !12

6:                                                ; preds = %1
  %7 = tail call i32 (ptr, ptr, ...) @luaL_error(ptr noundef %0, ptr noundef nonnull @.str.17) #9
  br label %tofile.exit

tofile.exit:                                      ; preds = %1, %6
  %8 = load ptr, ptr %2, align 8, !tbaa !11
  %9 = tail call i32 @luaL_checkoption(ptr noundef %0, i32 noundef 2, ptr noundef nonnull @.str.46, ptr noundef nonnull @f_seek.modenames) #9
  %10 = tail call i64 @luaL_optinteger(ptr noundef %0, i32 noundef 3, i64 noundef 0) #9
  %11 = tail call ptr @__errno_location() #10
  store i32 0, ptr %11, align 4, !tbaa !14
  %12 = sext i32 %9 to i64
  %13 = getelementptr inbounds [3 x i32], ptr @f_seek.mode, i64 0, i64 %12
  %14 = load i32, ptr %13, align 4, !tbaa !14
  %15 = tail call i32 @fseeko64(ptr noundef %8, i64 noundef %10, i32 noundef %14)
  %.not = icmp eq i32 %15, 0
  br i1 %.not, label %18, label %16, !prof !18

16:                                               ; preds = %tofile.exit
  %17 = tail call i32 @luaL_fileresult(ptr noundef %0, i32 noundef 0, ptr noundef null) #9
  br label %20

18:                                               ; preds = %tofile.exit
  %19 = tail call i64 @ftello64(ptr noundef %8)
  tail call void @lua_pushinteger(ptr noundef %0, i64 noundef %19) #9
  br label %20

20:                                               ; preds = %18, %16
  %.0 = phi i32 [ %17, %16 ], [ 1, %18 ]
  ret i32 %.0
}